target datalayout = "e-m:e-p270:32:32-p271:32:32-p272:64:64-i64:64-i128:128-f80:128-n8:16:32:64-S128"
target triple = "x86_64-pc-linux-gnu"

%struct.PACKET = type { ptr, i64 }

@smbuf = internal global [256 x i8] zeroinitializer, align 16
@.str.25 = private unnamed_addr constant [29 x i8] c"../openssl/test/packettest.c\00", align 1
@.str.34 = private unnamed_addr constant [38 x i8] c"PACKET_buf_init(&pkt, smbuf, BUF_LEN)\00", align 1
@.str.47 = private unnamed_addr constant [2 x i8] c"i\00", align 1
@.str.53 = private unnamed_addr constant [34 x i8] c"PACKET_forward(&pkt, BUF_LEN - 8)\00", align 1
@.str.63 = private unnamed_addr constant [27 x i8] c"PACKET_get_net_4(&pkt, &i)\00", align 1
@.str.64 = private unnamed_addr constant [13 x i8] c"0x02040608UL\00", align 1
@.str.65 = private unnamed_addr constant [13 x i8] c"0xf8fafcfeUL\00", align 1

; Function Attrs: inlinehint nounwind uwtable
define internal i64 @PACKET_remaining(ptr noundef %0) #4 {
  %2 = alloca ptr, align 8
  store ptr %0, ptr %2, align 8, !tbaa !33
  %3 = load ptr, ptr %2, align 8, !tbaa !33
  %4 = getelementptr inbounds nuw %struct.PACKET, ptr %3, i32 0, i32 1
  %5 = load i64, ptr %4, align 8, !tbaa !31
  ret i64 %5
}

; Function Attrs: inlinehint nounwind uwtable
define internal void @packet_forward(ptr noundef %0, i64 noundef %1) #4 {
  %3 = alloca ptr, align 8
  %4 = alloca i64, align 8
  store ptr %0, ptr %3, align 8, !tbaa !33
  store i64 %1, ptr %4, align 8, !tbaa !11
  %5 = load i64, ptr %4, align 8, !tbaa !11
  %6 = load ptr, ptr %3, align 8, !tbaa !33
  %7 = getelementptr inbounds nuw %struct.PACKET, ptr %6, i32 0, i32 0
  %8 = load ptr, ptr %7, align 8, !tbaa !29
  %9 = getelementptr inbounds nuw i8, ptr %8, i64 %5
  store ptr %9, ptr %7, align 8, !tbaa !29
  %10 = load i64, ptr %4, align 8, !tbaa !11
  %11 = load ptr, ptr %3, align 8, !tbaa !33
  %12 = getelementptr inbounds nuw %struct.PACKET, ptr %11, i32 0, i32 1
  %13 = load i64, ptr %12, align 8, !tbaa !31
  %14 = sub i64 %13, %10
  store i64 %14, ptr %12, align 8, !tbaa !31
  ret void
}

; Function Attrs: inlinehint nounwind uwtable
define internal i32 @PACKET_peek_net_4(ptr noundef %0, ptr noundef %1) #4 {
  %3 = alloca i32, align 4
  %4 = alloca ptr, align 8
  %5 = alloca ptr, align 8
  store ptr %0, ptr %4, align 8, !tbaa !33
  store ptr %1, ptr %5, align 8, !tbaa !36
  %6 = load ptr, ptr %4, align 8, !tbaa !33
  %7 = call i64 @PACKET_remaining(ptr noundef %6)
  %8 = icmp ult i64 %7, 4
  br i1 %8, label %9, label %10

9:                                                ; preds = %2
  store i32 0, ptr %3, align 4
  br label %47

10:                                               ; preds = %2
  %11 = load ptr, ptr %4, align 8, !tbaa !33
  %12 = getelementptr inbounds nuw %struct.PACKET, ptr %11, i32 0, i32 0
  %13 = load ptr, ptr %12, align 8, !tbaa !29
  %14 = load i8, ptr %13, align 1, !tbaa !8
  %15 = zext i8 %14 to i64
  %16 = shl i64 %15, 24
  %17 = load ptr, ptr %5, align 8, !tbaa !36
  store i64 %16, ptr %17, align 8, !tbaa !11
  %18 = load ptr, ptr %4, align 8, !tbaa !33
  %19 = getelementptr inbounds nuw %struct.PACKET, ptr %18, i32 0, i32 0
  %20 = load ptr, ptr %19, align 8, !tbaa !29
  %21 = getelementptr inbounds i8, ptr %20, i64 1
  %22 = load i8, ptr %21, align 1, !tbaa !8
  %23 = zext i8 %22 to i64
  %24 = shl i64 %23, 16
  %25 = load ptr, ptr %5, align 8, !tbaa !36
  %26 = load i64, ptr %25, align 8, !tbaa !11
  %27 = or i64 %26, %24
  store i64 %27, ptr %25, align 8, !tbaa !11
  %28 = load ptr, ptr %4, align 8, !tbaa !33
  %29 = getelementptr inbounds nuw %struct.PACKET, ptr %28, i32 0, i32 0
  %30 = load ptr, ptr %29, align 8, !tbaa !29
  %31 = getelementptr inbounds i8, ptr %30, i64 2
  %32 = load i8, ptr %31, align 1, !tbaa !8
  %33 = zext i8 %32 to i64
  %34 = shl i64 %33, 8
  %35 = load ptr, ptr %5, align 8, !tbaa !36
  %36 = load i64, ptr %35, align 8, !tbaa !11
  %37 = or i64 %36, %34
  store i64 %37, ptr %35, align 8, !tbaa !11
  %38 = load ptr, ptr %4, align 8, !tbaa !33
  %39 = getelementptr inbounds nuw %struct.PACKET, ptr %38, i32 0, i32 0
  %40 = load ptr, ptr %39, align 8, !tbaa !29
  %41 = getelementptr inbounds i8, ptr %40, i64 3
  %42 = load i8, ptr %41, align 1, !tbaa !8
  %43 = zext i8 %42 to i64
  %44 = load ptr, ptr %5, align 8, !tbaa !36
  %45 = load i64, ptr %44, align 8, !tbaa !11
  %46 = or i64 %45, %43
  store i64 %46, ptr %44, align 8, !tbaa !11
  store i32 1, ptr %3, align 4
  br label %47

47:                                               ; preds = %10, %9
  %48 = load i32, ptr %3, align 4
  ret i32 %48
}

; Function Attrs: inlinehint nounwind uwtable
define internal i32 @PACKET_forward(ptr noundef %0, i64 noundef %1) #4 {
  %3 = alloca i32, align 4
  %4 = alloca ptr, align 8
  %5 = alloca i64, align 8
  store ptr %0, ptr %4, align 8, !tbaa !33
  store i64 %1, ptr %5, align 8, !tbaa !11
  %6 = load ptr, ptr %4, align 8, !tbaa !33
  %7 = call i64 @PACKET_remaining(ptr noundef %6)
  %8 = load i64, ptr %5, align 8, !tbaa !11
  %9 = icmp ult i64 %7, %8
  br i1 %9, label %10, label %11

10:                                               ; preds = %2
  store i32 0, ptr %3, align 4
  br label %14

11:                                               ; preds = %2
  %12 = load ptr, ptr %4, align 8, !tbaa !33
  %13 = load i64, ptr %5, align 8, !tbaa !11
  call void @packet_forward(ptr noundef %12, i64 noundef %13)
  store i32 1, ptr %3, align 4
  br label %14

14:                                               ; preds = %11, %10
  %15 = load i32, ptr %3, align 4
  ret i32 %15
}

; Function Attrs: inlinehint nounwind uwtable
define internal i32 @PACKET_get_net_4(ptr noundef %0, ptr noundef %1) #4 {
  %3 = alloca i32, align 4
  %4 = alloca ptr, align 8
  %5 = alloca ptr, align 8
  store ptr %0, ptr %4, align 8, !tbaa !33
  store ptr %1, ptr %5, align 8, !tbaa !36
  %6 = load ptr, ptr %4, align 8, !tbaa !33
  %7 = load ptr, ptr %5, align 8, !tbaa !36
  %8 = call i32 @PACKET_peek_net_4(ptr noundef %6, ptr noundef %7)
  %9 = icmp ne i32 %8, 0
  br i1 %9, label %11, label %10

10:                                               ; preds = %2
  store i32 0, ptr %3, align 4
  br label %13

11:                                               ; preds = %2
  %12 = load ptr, ptr %4, align 8, !tbaa !33
  call void @packet_forward(ptr noundef %12, i64 noundef 4)
  store i32 1, ptr %3, align 4
  br label %13

13:                                               ; preds = %11, %10
  %14 = load i32, ptr %3, align 4
  ret i32 %14
}

; Function Attrs: inlinehint nounwind uwtable
define internal i32 @PACKET_buf_init(ptr noundef %0, ptr noundef %1, i64 noundef %2) #4 {
  %4 = alloca i32, align 4
  %5 = alloca ptr, align 8
  %6 = alloca ptr, align 8
  %7 = alloca i64, align 8
  store ptr %0, ptr %5, align 8, !tbaa !33
  store ptr %1, ptr %6, align 8, !tbaa !13
  store i64 %2, ptr %7, align 8, !tbaa !11
  %8 = load i64, ptr %7, align 8, !tbaa !11
  %9 = icmp ugt i64 %8, 9223372036854775807
  br i1 %9, label %10, label %11

10:                                               ; preds = %3
  store i32 0, ptr %4, align 4
  br label %18

11:                                               ; preds = %3
  %12 = load ptr, ptr %6, align 8, !tbaa !13
  %13 = load ptr, ptr %5, align 8, !tbaa !33
  %14 = getelementptr inbounds nuw %struct.PACKET, ptr %13, i32 0, i32 0
  store ptr %12, ptr %14, align 8, !tbaa !29
  %15 = load i64, ptr %7, align 8, !tbaa !11
  %16 = load ptr, ptr %5, align 8, !tbaa !33
  %17 = getelementptr inbounds nuw %struct.PACKET, ptr %16, i32 0, i32 1
  store i64 %15, ptr %17, align 8, !tbaa !31
  store i32 1, ptr %4, align 4
  br label %18

18:                                               ; preds = %11, %10
  %19 = load i32, ptr %4, align 4
  ret i32 %19
}

; Function Attrs: nounwind uwtable
define internal i32 @test_PACKET_get_net_4() #0 {
  %1 = alloca i32, align 4
  %2 = alloca i64, align 8
  %3 = alloca %struct.PACKET, align 8
  %4 = alloca i32, align 4
  call void @llvm.lifetime.start.p0(i64 8, ptr %2) #7
  store i64 0, ptr %2, align 8, !tbaa !11
  call void @llvm.lifetime.start.p0(i64 16, ptr %3) #7
  %5 = call i32 @PACKET_buf_init(ptr noundef %3, ptr noundef @smbuf, i64 noundef 255)
  %6 = icmp ne i32 %5, 0
  %7 = zext i1 %6 to i32
  %8 = call i32 @test_true(ptr noundef @.str.25, i32 noundef 121, ptr noundef @.str.34, i32 noundef %7)
  %9 = icmp ne i32 %8, 0
  br i1 %9, label %10, label %42

10:                                               ; preds = %0
  %11 = call i32 @PACKET_get_net_4(ptr noundef %3, ptr noundef %2)
  %12 = icmp ne i32 %11, 0
  %13 = zext i1 %12 to i32
  %14 = call i32 @test_true(ptr noundef @.str.25, i32 noundef 122, ptr noundef @.str.63, i32 noundef %13)
  %15 = icmp ne i32 %14, 0
  br i1 %15, label %16, label %42

16:                                               ; preds = %10
  %17 = load i64, ptr %2, align 8, !tbaa !11
  %18 = call i32 @test_ulong_eq(ptr noundef @.str.25, i32 noundef 123, ptr noundef @.str.47, ptr noundef @.str.64, i64 noundef %17, i64 noundef 33818120)
  %19 = icmp ne i32 %18, 0
  br i1 %19, label %20, label %42

20:                                               ; preds = %16
  %21 = call i32 @PACKET_forward(ptr noundef %3, i64 noundef 247)
  %22 = icmp ne i32 %21, 0
  %23 = zext i1 %22 to i32
  %24 = call i32 @test_true(ptr noundef @.str.25, i32 noundef 124, ptr noundef @.str.53, i32 noundef %23)
  %25 = icmp ne i32 %24, 0
  br i1 %25, label %26, label %42

26:                                               ; preds = %20
  %27 = call i32 @PACKET_get_net_4(ptr noundef %3, ptr noundef %2)
  %28 = icmp ne i32 %27, 0
  %29 = zext i1 %28 to i32
  %30 = call i32 @test_true(ptr noundef @.str.25, i32 noundef 125, ptr noundef @.str.63, i32 noundef %29)
  %31 = icmp ne i32 %30, 0
  br i1 %31, label %32, label %42

32:                                               ; preds = %26
  %33 = load i64, ptr %2, align 8, !tbaa !11
  %34 = call i32 @test_ulong_eq(ptr noundef @.str.25, i32 noundef 126, ptr noundef @.str.47, ptr noundef @.str.65, i64 noundef %33, i64 noundef 4177198334)
  %35 = icmp ne i32 %34, 0
  br i1 %35, label %36, label %42

36:                                               ; preds = %32
  %37 = call i32 @PACKET_get_net_4(ptr noundef %3, ptr noundef %2)
  %38 = icmp ne i32 %37, 0
  %39 = zext i1 %38 to i32
  %40 = call i32 @test_false(ptr noundef @.str.25, i32 noundef 127, ptr noundef @.str.63, i32 noundef %39)
  %41 = icmp ne i32 %40, 0
  br i1 %41, label %43, label %42

42:                                               ; preds = %36, %32, %26, %20, %16, %10, %0
  store i32 0, ptr %1, align 4
  store i32 1, ptr %4, align 4
  br label %44

43:                                               ; preds = %36
  store i32 1, ptr %1, align 4
  store i32 1, ptr %4, align 4
  br label %44

44:                                               ; preds = %43, %42
  call void @llvm.lifetime.end.p0(i64 16, ptr %3) #7
  call void @llvm.lifetime.end.p0(i64 8, ptr %2) #7
  %45 = load i32, ptr %1, align 4
  ret i32 %45
}