; Function Attrs: nounwind uwtable
define internal range(i32 0, 2) i32 @test_PACKET_get_net_4() #0 {
  %1 = tail call i32 @test_true(ptr noundef nonnull @.str.25, i32 noundef 121, ptr noundef nonnull @.str.34, i32 noundef 1) #6
  %.not = icmp eq i32 %1, 0
  br i1 %.not, label %38, label %PACKET_get_net_4.exit

PACKET_get_net_4.exit:                            ; preds = %0
  %2 = load i8, ptr @smbuf, align 16, !tbaa !4
  %3 = load i8, ptr getelementptr inbounds nuw (i8, ptr @smbuf, i64 1), align 1, !tbaa !4
  %4 = load i8, ptr getelementptr inbounds nuw (i8, ptr @smbuf, i64 2), align 2, !tbaa !4
  %5 = load i8, ptr getelementptr inbounds nuw (i8, ptr @smbuf, i64 3), align 1, !tbaa !4
  %6 = tail call i32 @test_true(ptr noundef nonnull @.str.25, i32 noundef 122, ptr noundef nonnull @.str.63, i32 noundef 1) #6
  %.not1 = icmp eq i32 %6, 0
  br i1 %.not1, label %38, label %7

7:                                                ; preds = %PACKET_get_net_4.exit
  %8 = zext i8 %4 to i64
  %9 = shl nuw nsw i64 %8, 8
  %10 = zext i8 %3 to i64
  %11 = shl nuw nsw i64 %10, 16
  %12 = zext i8 %2 to i64
  %13 = shl nuw nsw i64 %12, 24
  %14 = or disjoint i64 %11, %13
  %15 = or disjoint i64 %14, %9
  %16 = zext i8 %5 to i64
  %17 = or disjoint i64 %15, %16
  %18 = tail call i32 @test_ulong_eq(ptr noundef nonnull @.str.25, i32 noundef 123, ptr noundef nonnull @.str.47, ptr noundef nonnull @.str.64, i64 noundef %17, i64 noundef 33818120) #6
  %.not2 = icmp eq i32 %18, 0
  br i1 %.not2, label %38, label %PACKET_forward.exit

PACKET_forward.exit:                              ; preds = %7
  %19 = tail call i32 @test_true(ptr noundef nonnull @.str.25, i32 noundef 124, ptr noundef nonnull @.str.53, i32 noundef 1) #6
  %.not3 = icmp eq i32 %19, 0
  br i1 %.not3, label %38, label %PACKET_get_net_4.exit10

PACKET_get_net_4.exit10:                          ; preds = %PACKET_forward.exit
  %20 = load i8, ptr getelementptr inbounds nuw (i8, ptr @smbuf, i64 251), align 1, !tbaa !4
  %21 = load i8, ptr getelementptr inbounds nuw (i8, ptr @smbuf, i64 252), align 4, !tbaa !4
  %22 = load i8, ptr getelementptr inbounds nuw (i8, ptr @smbuf, i64 253), align 1, !tbaa !4
  %23 = load i8, ptr getelementptr inbounds nuw (i8, ptr @smbuf, i64 254), align 2, !tbaa !4
  %24 = tail call i32 @test_true(ptr noundef nonnull @.str.25, i32 noundef 125, ptr noundef nonnull @.str.63, i32 noundef 1) #6
  %.not4 = icmp eq i32 %24, 0
  br i1 %.not4, label %38, label %25

25:                                               ; preds = %PACKET_get_net_4.exit10
  %26 = zext i8 %22 to i64
  %27 = shl nuw nsw i64 %26, 8
  %28 = zext i8 %21 to i64
  %29 = shl nuw nsw i64 %28, 16
  %30 = zext i8 %20 to i64
  %31 = shl nuw nsw i64 %30, 24
  %32 = or disjoint i64 %29, %31
  %33 = or disjoint i64 %32, %27
  %34 = zext i8 %23 to i64
  %35 = or disjoint i64 %33, %34
  %36 = tail call i32 @test_ulong_eq(ptr noundef nonnull @.str.25, i32 noundef 126, ptr noundef nonnull @.str.47, ptr noundef nonnull @.str.65, i64 noundef %35, i64 noundef 4177198334) #6
  %.not5 = icmp eq i32 %36, 0
  br i1 %.not5, label %38, label %PACKET_get_net_4.exit13

PACKET_get_net_4.exit13:                          ; preds = %25
  %37 = tail call i32 @test_false(ptr noundef nonnull @.str.25, i32 noundef 127, ptr noundef nonnull @.str.63, i32 noundef 0) #6
  %.not6 = icmp ne i32 %37, 0
  %spec.select = zext i1 %.not6 to i32
  br label %38

38:                                               ; preds = %PACKET_get_net_4.exit13, %0, %PACKET_get_net_4.exit, %7, %PACKET_forward.exit, %PACKET_get_net_4.exit10, %25
  %.0 = phi i32 [ 0, %25 ], [ 0, %PACKET_get_net_4.exit10 ], [ 0, %PACKET_forward.exit ], [ 0, %7 ], [ 0, %PACKET_get_net_4.exit ], [ 0, %0 ], [ %spec.select, %PACKET_get_net_4.exit13 ]
  ret i32 %.0
}